target datalayout = "e-m:e-p270:32:32-p271:32:32-p272:64:64-i64:64-i128:128-f80:128-n8:16:32:64-S128"
target triple = "x86_64-pc-linux-gnu"

; Function Attrs: nounwind uwtable
define i32 @firstShiftWithOneBit(i64 noundef %0, i32 noundef %1) #0 {
  %3 = alloca i32, align 4
  %4 = alloca i64, align 8
  %5 = alloca i32, align 4
  %6 = alloca i32, align 4
  %7 = alloca i32, align 4
  store i64 %0, ptr %4, align 8, !tbaa !18
  store i32 %1, ptr %5, align 4, !tbaa !8
  call void @llvm.lifetime.start.p0(i64 4, ptr %6) #7
  store i32 0, ptr %6, align 4, !tbaa !8
  %8 = load i32, ptr %5, align 4, !tbaa !8
  %9 = icmp eq i32 %8, 16
  br i1 %9, label %10, label %11

10:                                               ; preds = %2
  store i32 0, ptr %3, align 4
  store i32 1, ptr %7, align 4
  br label %68

11:                                               ; preds = %2
  %12 = load i64, ptr %4, align 8, !tbaa !18
  %13 = icmp uge i64 %12, 4294967296
  br i1 %13, label %14, label %19

14:                                               ; preds = %11
  %15 = load i32, ptr %6, align 4, !tbaa !8
  %16 = add nsw i32 %15, 32
  store i32 %16, ptr %6, align 4, !tbaa !8
  %17 = load i64, ptr %4, align 8, !tbaa !18
  %18 = lshr i64 %17, 32
  store i64 %18, ptr %4, align 8, !tbaa !18
  br label %19

19:                                               ; preds = %14, %11
  %20 = load i32, ptr %5, align 4, !tbaa !8
  %21 = icmp eq i32 %20, 8
  br i1 %21, label %22, label %26

22:                                               ; preds = %19
  %23 = load i32, ptr %6, align 4, !tbaa !8
  %24 = sub nsw i32 64, %23
  %25 = sdiv i32 %24, 32
  store i32 %25, ptr %3, align 4
  store i32 1, ptr %7, align 4
  br label %68

26:                                               ; preds = %19
  %27 = load i64, ptr %4, align 8, !tbaa !18
  %28 = icmp uge i64 %27, 65536
  br i1 %28, label %29, label %34

29:                                               ; preds = %26
  %30 = load i32, ptr %6, align 4, !tbaa !8
  %31 = add nsw i32 %30, 16
  store i32 %31, ptr %6, align 4, !tbaa !8
  %32 = load i64, ptr %4, align 8, !tbaa !18
  %33 = lshr i64 %32, 16
  store i64 %33, ptr %4, align 8, !tbaa !18
  br label %34

34:                                               ; preds = %29, %26
  %35 = load i32, ptr %5, align 4, !tbaa !8
  %36 = icmp eq i32 %35, 4
  br i1 %36, label %37, label %41

37:                                               ; preds = %34
  %38 = load i32, ptr %6, align 4, !tbaa !8
  %39 = sub nsw i32 64, %38
  %40 = sdiv i32 %39, 16
  store i32 %40, ptr %3, align 4
  store i32 1, ptr %7, align 4
  br label %68

41:                                               ; preds = %34
  %42 = load i64, ptr %4, align 8, !tbaa !18
  %43 = icmp uge i64 %42, 256
  br i1 %43, label %44, label %49

44:                                               ; preds = %41
  %45 = load i32, ptr %6, align 4, !tbaa !8
  %46 = add nsw i32 %45, 8
  store i32 %46, ptr %6, align 4, !tbaa !8
  %47 = load i64, ptr %4, align 8, !tbaa !18
  %48 = lshr i64 %47, 8
  store i64 %48, ptr %4, align 8, !tbaa !18
  br label %49

49:                                               ; preds = %44, %41
  %50 = load i32, ptr %5, align 4, !tbaa !8
  %51 = icmp eq i32 %50, 2
  br i1 %51, label %52, label %56

52:                                               ; preds = %49
  %53 = load i32, ptr %6, align 4, !tbaa !8
  %54 = sub nsw i32 64, %53
  %55 = sdiv i32 %54, 8
  store i32 %55, ptr %3, align 4
  store i32 1, ptr %7, align 4
  br label %68

56:                                               ; preds = %49
  %57 = load i64, ptr %4, align 8, !tbaa !18
  %58 = icmp uge i64 %57, 16
  br i1 %58, label %59, label %64

59:                                               ; preds = %56
  %60 = load i32, ptr %6, align 4, !tbaa !8
  %61 = add nsw i32 %60, 4
  store i32 %61, ptr %6, align 4, !tbaa !8
  %62 = load i64, ptr %4, align 8, !tbaa !18
  %63 = lshr i64 %62, 4
  store i64 %63, ptr %4, align 8, !tbaa !18
  br label %64

64:                                               ; preds = %59, %56
  %65 = load i32, ptr %6, align 4, !tbaa !8
  %66 = sub nsw i32 64, %65
  %67 = sdiv i32 %66, 4
  store i32 %67, ptr %3, align 4
  store i32 1, ptr %7, align 4
  br label %68

68:                                               ; preds = %64, %52, %37, %22, %10
  call void @llvm.lifetime.end.p0(i64 4, ptr %6) #7
  %69 = load i32, ptr %3, align 4
  ret i32 %69
}

; Function Attrs: nounwind uwtable
define i32 @minTemp2_fast(ptr noundef %0, i32 noundef %1, i32 noundef %2, i32 noundef %3, i32 noundef %4, ptr noundef %5) #0 {
  %7 = alloca i32, align 4
  %8 = alloca ptr, align 8
  %9 = alloca i32, align 4
  %10 = alloca i32, align 4
  %11 = alloca i32, align 4
  %12 = alloca i32, align 4
  %13 = alloca ptr, align 8
  %14 = alloca i32, align 4
  %15 = alloca i32, align 4
  %16 = alloca i64, align 8
  %17 = alloca i32, align 4
  store ptr %0, ptr %8, align 8, !tbaa !3
  store i32 %1, ptr %9, align 4, !tbaa !8
  store i32 %2, ptr %10, align 4, !tbaa !8
  store i32 %3, ptr %11, align 4, !tbaa !8
  store i32 %4, ptr %12, align 4, !tbaa !8
  store ptr %5, ptr %13, align 8, !tbaa !12
  call void @llvm.lifetime.start.p0(i64 4, ptr %14) #7
  call void @llvm.lifetime.start.p0(i64 4, ptr %15) #7
  %18 = load i32, ptr %9, align 4, !tbaa !8
  %19 = shl i32 1, %18
  store i32 %19, ptr %15, align 4, !tbaa !8
  call void @llvm.lifetime.start.p0(i64 8, ptr %16) #7
  %20 = load i32, ptr %12, align 4, !tbaa !8
  %21 = sub nsw i32 %20, 1
  store i32 %21, ptr %14, align 4, !tbaa !8
  br label %22

22:                                               ; preds = %114, %6
  %23 = load i32, ptr %14, align 4, !tbaa !8
  %24 = icmp sge i32 %23, 0
  br i1 %24, label %25, label %117

25:                                               ; preds = %22
  %26 = load ptr, ptr %8, align 8, !tbaa !3
  %27 = load i32, ptr %14, align 4, !tbaa !8
  %28 = sext i32 %27 to i64
  %29 = getelementptr inbounds i64, ptr %26, i64 %28
  %30 = load i64, ptr %29, align 8, !tbaa !18
  %31 = load i32, ptr %9, align 4, !tbaa !8
  %32 = sext i32 %31 to i64
  %33 = getelementptr inbounds [5 x [4 x i64]], ptr @SFmask, i64 0, i64 %32
  %34 = load i32, ptr %10, align 4, !tbaa !8
  %35 = sext i32 %34 to i64
  %36 = getelementptr inbounds [4 x i64], ptr %33, i64 0, i64 %35
  %37 = load i64, ptr %36, align 8, !tbaa !18
  %38 = and i64 %30, %37
  %39 = load i32, ptr %10, align 4, !tbaa !8
  %40 = load i32, ptr %15, align 4, !tbaa !8
  %41 = mul nsw i32 %39, %40
  %42 = zext i32 %41 to i64
  %43 = shl i64 %38, %42
  %44 = load ptr, ptr %8, align 8, !tbaa !3
  %45 = load i32, ptr %14, align 4, !tbaa !8
  %46 = sext i32 %45 to i64
  %47 = getelementptr inbounds i64, ptr %44, i64 %46
  %48 = load i64, ptr %47, align 8, !tbaa !18
  %49 = load i32, ptr %9, align 4, !tbaa !8
  %50 = sext i32 %49 to i64
  %51 = getelementptr inbounds [5 x [4 x i64]], ptr @SFmask, i64 0, i64 %50
  %52 = load i32, ptr %11, align 4, !tbaa !8
  %53 = sext i32 %52 to i64
  %54 = getelementptr inbounds [4 x i64], ptr %51, i64 0, i64 %53
  %55 = load i64, ptr %54, align 8, !tbaa !18
  %56 = and i64 %48, %55
  %57 = load i32, ptr %11, align 4, !tbaa !8
  %58 = load i32, ptr %15, align 4, !tbaa !8
  %59 = mul nsw i32 %57, %58
  %60 = zext i32 %59 to i64
  %61 = shl i64 %56, %60
  %62 = xor i64 %43, %61
  store i64 %62, ptr %16, align 8, !tbaa !18
  %63 = load i64, ptr %16, align 8, !tbaa !18
  %64 = icmp eq i64 %63, 0
  br i1 %64, label %65, label %66

65:                                               ; preds = %25
  br label %114

66:                                               ; preds = %25
  %67 = load i32, ptr %14, align 4, !tbaa !8
  %68 = mul nsw i32 %67, 100
  %69 = add nsw i32 %68, 20
  %70 = load i64, ptr %16, align 8, !tbaa !18
  %71 = load i32, ptr %15, align 4, !tbaa !8
  %72 = call i32 @firstShiftWithOneBit(i64 noundef %70, i32 noundef %71)
  %73 = sub nsw i32 %69, %72
  %74 = load ptr, ptr %13, align 8, !tbaa !12
  store i32 %73, ptr %74, align 4, !tbaa !8
  %75 = load ptr, ptr %8, align 8, !tbaa !3
  %76 = load i32, ptr %14, align 4, !tbaa !8
  %77 = sext i32 %76 to i64
  %78 = getelementptr inbounds i64, ptr %75, i64 %77
  %79 = load i64, ptr %78, align 8, !tbaa !18
  %80 = load i32, ptr %9, align 4, !tbaa !8
  %81 = sext i32 %80 to i64
  %82 = getelementptr inbounds [5 x [4 x i64]], ptr @SFmask, i64 0, i64 %81
  %83 = load i32, ptr %10, align 4, !tbaa !8
  %84 = sext i32 %83 to i64
  %85 = getelementptr inbounds [4 x i64], ptr %82, i64 0, i64 %84
  %86 = load i64, ptr %85, align 8, !tbaa !18
  %87 = and i64 %79, %86
  %88 = load i32, ptr %10, align 4, !tbaa !8
  %89 = load i32, ptr %15, align 4, !tbaa !8
  %90 = mul nsw i32 %88, %89
  %91 = zext i32 %90 to i64
  %92 = shl i64 %87, %91
  %93 = load ptr, ptr %8, align 8, !tbaa !3
  %94 = load i32, ptr %14, align 4, !tbaa !8
  %95 = sext i32 %94 to i64
  %96 = getelementptr inbounds i64, ptr %93, i64 %95
  %97 = load i64, ptr %96, align 8, !tbaa !18
  %98 = load i32, ptr %9, align 4, !tbaa !8
  %99 = sext i32 %98 to i64
  %100 = getelementptr inbounds [5 x [4 x i64]], ptr @SFmask, i64 0, i64 %99
  %101 = load i32, ptr %11, align 4, !tbaa !8
  %102 = sext i32 %101 to i64
  %103 = getelementptr inbounds [4 x i64], ptr %100, i64 0, i64 %102
  %104 = load i64, ptr %103, align 8, !tbaa !18
  %105 = and i64 %97, %104
  %106 = load i32, ptr %11, align 4, !tbaa !8
  %107 = load i32, ptr %15, align 4, !tbaa !8
  %108 = mul nsw i32 %106, %107
  %109 = zext i32 %108 to i64
  %110 = shl i64 %105, %109
  %111 = icmp ule i64 %92, %110
  br i1 %111, label %112, label %113

112:                                              ; preds = %66
  store i32 0, ptr %7, align 4
  store i32 1, ptr %17, align 4
  br label %119

113:                                              ; preds = %66
  store i32 1, ptr %7, align 4
  store i32 1, ptr %17, align 4
  br label %119

114:                                              ; preds = %65
  %115 = load i32, ptr %14, align 4, !tbaa !8
  %116 = add nsw i32 %115, -1
  store i32 %116, ptr %14, align 4, !tbaa !8
  br label %22, !llvm.loop !23

117:                                              ; preds = %22
  %118 = load ptr, ptr %13, align 8, !tbaa !12
  store i32 0, ptr %118, align 4, !tbaa !8
  store i32 0, ptr %7, align 4
  store i32 1, ptr %17, align 4
  br label %119

119:                                              ; preds = %117, %113, %112
  call void @llvm.lifetime.end.p0(i64 8, ptr %16) #7
  call void @llvm.lifetime.end.p0(i64 4, ptr %15) #7
  call void @llvm.lifetime.end.p0(i64 4, ptr %14) #7
  %120 = load i32, ptr %7, align 4
  ret i32 %120
}