; Function Attrs: nofree norecurse nosync nounwind memory(argmem: readwrite) uwtable
define range(i32 0, 2) i32 @minTemp2_fast(ptr noundef readonly captures(none) %0, i32 noundef %1, i32 noundef %2, i32 noundef %3, i32 noundef %4, ptr noundef writeonly captures(none) %5) local_unnamed_addr #5 {
  %7 = sext i32 %1 to i64
  %8 = sext i32 %2 to i64
  %9 = getelementptr inbounds [5 x [4 x i64]], ptr @SFmask, i64 0, i64 %7, i64 %8
  %10 = shl i32 %2, %1
  %11 = zext nneg i32 %10 to i64
  %12 = sext i32 %3 to i64
  %13 = getelementptr inbounds [5 x [4 x i64]], ptr @SFmask, i64 0, i64 %7, i64 %12
  %14 = shl i32 %3, %1
  %15 = zext nneg i32 %14 to i64
  %16 = zext i32 %4 to i64
  br label %17

17:                                               ; preds = %20, %6
  %indvars.iv = phi i64 [ %21, %20 ], [ %16, %6 ]
  %18 = trunc nuw i64 %indvars.iv to i32
  %19 = icmp sgt i32 %18, 0
  br i1 %19, label %20, label %62

20:                                               ; preds = %17
  %21 = add nsw i64 %indvars.iv, -1
  %22 = getelementptr inbounds nuw i64, ptr %0, i64 %21
  %23 = load i64, ptr %22, align 8, !tbaa !11
  %24 = load i64, ptr %9, align 8, !tbaa !11
  %25 = and i64 %24, %23
  %26 = shl i64 %25, %11
  %27 = load i64, ptr %13, align 8, !tbaa !11
  %28 = and i64 %27, %23
  %29 = shl i64 %28, %15
  %30 = icmp eq i64 %26, %29
  br i1 %30, label %17, label %31, !llvm.loop !16

31:                                               ; preds = %20
  %32 = trunc i64 %21 to i32
  %33 = xor i64 %29, %26
  %34 = mul nsw i32 %32, 100
  %35 = add nuw nsw i32 %34, 20
  %36 = icmp eq i32 %1, 4
  br i1 %36, label %firstShiftWithOneBit.exit, label %37

37:                                               ; preds = %31
  %38 = icmp ugt i64 %33, 4294967295
  %spec.select28.i = select i1 %38, i32 32, i32 0
  %39 = icmp eq i32 %1, 3
  br i1 %39, label %40, label %43

40:                                               ; preds = %37
  %41 = sub nuw nsw i32 64, %spec.select28.i
  %42 = lshr exact i32 %41, 5
  br label %firstShiftWithOneBit.exit

43:                                               ; preds = %37
  %44 = lshr i64 %33, 32
  %spec.select.i = select i1 %38, i64 %44, i64 %33
  %45 = icmp samesign ugt i64 %spec.select.i, 65535
  %46 = or disjoint i32 %spec.select28.i, 16
  %.1.i = select i1 %45, i32 %46, i32 %spec.select28.i
  %47 = icmp eq i32 %1, 2
  br i1 %47, label %48, label %49

48:                                               ; preds = %43
  %.lhs.trunc.i = sub nuw nsw i32 64, %.1.i
  %.zext.i = lshr exact i32 %.lhs.trunc.i, 4
  br label %firstShiftWithOneBit.exit

49:                                               ; preds = %43
  %50 = lshr i64 %spec.select.i, 16
  %.123.i = select i1 %45, i64 %50, i64 %spec.select.i
  %51 = icmp samesign ugt i64 %.123.i, 255
  %52 = or disjoint i32 %.1.i, 8
  %.2.i = select i1 %51, i32 %52, i32 %.1.i
  %53 = icmp eq i32 %1, 1
  br i1 %53, label %54, label %56

54:                                               ; preds = %49
  %.lhs.trunc30.i = sub nuw nsw i32 64, %.2.i
  %55 = lshr exact i32 %.lhs.trunc30.i, 3
  br label %firstShiftWithOneBit.exit

56:                                               ; preds = %49
  %57 = lshr i64 %.123.i, 8
  %.224.i = select i1 %51, i64 %57, i64 %.123.i
  %58 = icmp samesign ugt i64 %.224.i, 15
  %59 = or disjoint i32 %.2.i, 4
  %spec.select29.i = select i1 %58, i32 %59, i32 %.2.i
  %.lhs.trunc32.i = sub nuw nsw i32 64, %spec.select29.i
  %60 = lshr i32 %.lhs.trunc32.i, 2
  br label %firstShiftWithOneBit.exit

firstShiftWithOneBit.exit:                        ; preds = %31, %40, %48, %54, %56
  %.021.i = phi i32 [ %42, %40 ], [ %.zext.i, %48 ], [ %55, %54 ], [ %60, %56 ], [ 0, %31 ]
  %61 = sub nuw i32 %35, %.021.i
  store i32 %61, ptr %5, align 4, !tbaa !6
  %.not = icmp ugt i64 %26, %29
  %. = zext i1 %.not to i32
  br label %63

62:                                               ; preds = %17
  store i32 0, ptr %5, align 4, !tbaa !6
  br label %63

63:                                               ; preds = %firstShiftWithOneBit.exit, %62
  %.0 = phi i32 [ 0, %62 ], [ %., %firstShiftWithOneBit.exit ]
  ret i32 %.0
}